target datalayout = "e-m:e-p270:32:32-p271:32:32-p272:64:64-i64:64-i128:128-f80:128-n8:16:32:64-S128"
target triple = "x86_64-pc-linux-gnu"

@bio_err = external global ptr, align 8
@.str.106 = private unnamed_addr constant [30 x i8] c"../openssl/apps/fipsinstall.c\00", align 1
@.str.115 = private unnamed_addr constant [27 x i8] c"INSTALL_SELF_TEST_KATS_RUN\00", align 1
@.str.126 = private unnamed_addr constant [16 x i8] c"install-version\00", align 1
@.str.127 = private unnamed_addr constant [2 x i8] c"1\00", align 1
@.str.128 = private unnamed_addr constant [19 x i8] c"version not found\0A\00", align 1
@.str.129 = private unnamed_addr constant [11 x i8] c"module-mac\00", align 1
@.str.130 = private unnamed_addr constant [32 x i8] c"Module integrity MAC not found\0A\00", align 1
@.str.131 = private unnamed_addr constant [27 x i8] c"Module integrity mismatch\0A\00", align 1
@.str.132 = private unnamed_addr constant [15 x i8] c"install-status\00", align 1
@.str.133 = private unnamed_addr constant [26 x i8] c"install status not found\0A\00", align 1
@.str.134 = private unnamed_addr constant [12 x i8] c"install-mac\00", align 1
@.str.135 = private unnamed_addr constant [33 x i8] c"Install indicator MAC not found\0A\00", align 1
@.str.136 = private unnamed_addr constant [35 x i8] c"Install indicator status mismatch\0A\00", align 1

; Function Attrs: nounwind uwtable
define internal i32 @verify_config(ptr noundef %0, ptr noundef %1, ptr noundef %2, i64 noundef %3, ptr noundef %4, i64 noundef %5) #0 {
  %7 = alloca ptr, align 8
  %8 = alloca ptr, align 8
  %9 = alloca ptr, align 8
  %10 = alloca i64, align 8
  %11 = alloca ptr, align 8
  %12 = alloca i64, align 8
  %13 = alloca i32, align 4
  %14 = alloca ptr, align 8
  %15 = alloca ptr, align 8
  %16 = alloca ptr, align 8
  %17 = alloca i64, align 8
  %18 = alloca ptr, align 8
  store ptr %0, ptr %7, align 8, !tbaa !11
  store ptr %1, ptr %8, align 8, !tbaa !11
  store ptr %2, ptr %9, align 8, !tbaa !11
  store i64 %3, ptr %10, align 8, !tbaa !19
  store ptr %4, ptr %11, align 8, !tbaa !11
  store i64 %5, ptr %12, align 8, !tbaa !19
  call void @llvm.lifetime.start.p0(i64 4, ptr %13) #6
  store i32 0, ptr %13, align 4, !tbaa !4
  call void @llvm.lifetime.start.p0(i64 8, ptr %14) #6
  store ptr null, ptr %14, align 8, !tbaa !11
  call void @llvm.lifetime.start.p0(i64 8, ptr %15) #6
  store ptr null, ptr %15, align 8, !tbaa !11
  call void @llvm.lifetime.start.p0(i64 8, ptr %16) #6
  store ptr null, ptr %16, align 8, !tbaa !11
  call void @llvm.lifetime.start.p0(i64 8, ptr %17) #6
  call void @llvm.lifetime.start.p0(i64 8, ptr %18) #6
  store ptr null, ptr %18, align 8, !tbaa !23
  %19 = load ptr, ptr %7, align 8, !tbaa !11
  %20 = call ptr @app_load_config_internal(ptr noundef %19, i32 noundef 0)
  store ptr %20, ptr %18, align 8, !tbaa !23
  %21 = load ptr, ptr %18, align 8, !tbaa !23
  %22 = icmp eq ptr %21, null
  br i1 %22, label %23, label %24

23:                                               ; preds = %6
  br label %112

24:                                               ; preds = %6
  %25 = load ptr, ptr %18, align 8, !tbaa !23
  %26 = load ptr, ptr %8, align 8, !tbaa !11
  %27 = call ptr @NCONF_get_string(ptr noundef %25, ptr noundef %26, ptr noundef @.str.126)
  store ptr %27, ptr %14, align 8, !tbaa !11
  %28 = load ptr, ptr %14, align 8, !tbaa !11
  %29 = icmp eq ptr %28, null
  br i1 %29, label %34, label %30

30:                                               ; preds = %24
  %31 = load ptr, ptr %14, align 8, !tbaa !11
  %32 = call i32 @strcmp(ptr noundef %31, ptr noundef @.str.127) #7
  %33 = icmp ne i32 %32, 0
  br i1 %33, label %34, label %37

34:                                               ; preds = %30, %24
  %35 = load ptr, ptr @bio_err, align 8, !tbaa !13
  %36 = call i32 (ptr, ptr, ...) @BIO_printf(ptr noundef %35, ptr noundef @.str.128)
  br label %112

37:                                               ; preds = %30
  %38 = load ptr, ptr %18, align 8, !tbaa !23
  %39 = load ptr, ptr %8, align 8, !tbaa !11
  %40 = call ptr @NCONF_get_string(ptr noundef %38, ptr noundef %39, ptr noundef @.str.129)
  store ptr %40, ptr %14, align 8, !tbaa !11
  %41 = load ptr, ptr %14, align 8, !tbaa !11
  %42 = icmp eq ptr %41, null
  br i1 %42, label %43, label %46

43:                                               ; preds = %37
  %44 = load ptr, ptr @bio_err, align 8, !tbaa !13
  %45 = call i32 (ptr, ptr, ...) @BIO_printf(ptr noundef %44, ptr noundef @.str.130)
  br label %112

46:                                               ; preds = %37
  %47 = load ptr, ptr %14, align 8, !tbaa !11
  %48 = call ptr @OPENSSL_hexstr2buf(ptr noundef %47, ptr noundef %17)
  store ptr %48, ptr %15, align 8, !tbaa !11
  %49 = load ptr, ptr %15, align 8, !tbaa !11
  %50 = icmp eq ptr %49, null
  br i1 %50, label %61, label %51

51:                                               ; preds = %46
  %52 = load i64, ptr %17, align 8, !tbaa !19
  %53 = load i64, ptr %10, align 8, !tbaa !19
  %54 = icmp ne i64 %52, %53
  br i1 %54, label %61, label %55

55:                                               ; preds = %51
  %56 = load ptr, ptr %9, align 8, !tbaa !11
  %57 = load ptr, ptr %15, align 8, !tbaa !11
  %58 = load i64, ptr %10, align 8, !tbaa !19
  %59 = call i32 @memcmp(ptr noundef %56, ptr noundef %57, i64 noundef %58) #7
  %60 = icmp ne i32 %59, 0
  br i1 %60, label %61, label %64

61:                                               ; preds = %55, %51, %46
  %62 = load ptr, ptr @bio_err, align 8, !tbaa !13
  %63 = call i32 (ptr, ptr, ...) @BIO_printf(ptr noundef %62, ptr noundef @.str.131)
  br label %112

64:                                               ; preds = %55
  %65 = load ptr, ptr %11, align 8, !tbaa !11
  %66 = icmp ne ptr %65, null
  br i1 %66, label %67, label %111

67:                                               ; preds = %64
  %68 = load i64, ptr %12, align 8, !tbaa !19
  %69 = icmp ugt i64 %68, 0
  br i1 %69, label %70, label %111

70:                                               ; preds = %67
  %71 = load ptr, ptr %18, align 8, !tbaa !23
  %72 = load ptr, ptr %8, align 8, !tbaa !11
  %73 = call ptr @NCONF_get_string(ptr noundef %71, ptr noundef %72, ptr noundef @.str.132)
  store ptr %73, ptr %14, align 8, !tbaa !11
  %74 = load ptr, ptr %14, align 8, !tbaa !11
  %75 = icmp eq ptr %74, null
  br i1 %75, label %80, label %76

76:                                               ; preds = %70
  %77 = load ptr, ptr %14, align 8, !tbaa !11
  %78 = call i32 @strcmp(ptr noundef %77, ptr noundef @.str.115) #7
  %79 = icmp ne i32 %78, 0
  br i1 %79, label %80, label %83

80:                                               ; preds = %76, %70
  %81 = load ptr, ptr @bio_err, align 8, !tbaa !13
  %82 = call i32 (ptr, ptr, ...) @BIO_printf(ptr noundef %81, ptr noundef @.str.133)
  br label %112

83:                                               ; preds = %76
  %84 = load ptr, ptr %18, align 8, !tbaa !23
  %85 = load ptr, ptr %8, align 8, !tbaa !11
  %86 = call ptr @NCONF_get_string(ptr noundef %84, ptr noundef %85, ptr noundef @.str.134)
  store ptr %86, ptr %14, align 8, !tbaa !11
  %87 = load ptr, ptr %14, align 8, !tbaa !11
  %88 = icmp eq ptr %87, null
  br i1 %88, label %89, label %92

89:                                               ; preds = %83
  %90 = load ptr, ptr @bio_err, align 8, !tbaa !13
  %91 = call i32 (ptr, ptr, ...) @BIO_printf(ptr noundef %90, ptr noundef @.str.135)
  br label %112

92:                                               ; preds = %83
  %93 = load ptr, ptr %14, align 8, !tbaa !11
  %94 = call ptr @OPENSSL_hexstr2buf(ptr noundef %93, ptr noundef %17)
  store ptr %94, ptr %16, align 8, !tbaa !11
  %95 = load ptr, ptr %16, align 8, !tbaa !11
  %96 = icmp eq ptr %95, null
  br i1 %96, label %107, label %97

97:                                               ; preds = %92
  %98 = load i64, ptr %17, align 8, !tbaa !19
  %99 = load i64, ptr %12, align 8, !tbaa !19
  %100 = icmp ne i64 %98, %99
  br i1 %100, label %107, label %101

101:                                              ; preds = %97
  %102 = load ptr, ptr %11, align 8, !tbaa !11
  %103 = load ptr, ptr %16, align 8, !tbaa !11
  %104 = load i64, ptr %12, align 8, !tbaa !19
  %105 = call i32 @memcmp(ptr noundef %102, ptr noundef %103, i64 noundef %104) #7
  %106 = icmp ne i32 %105, 0
  br i1 %106, label %107, label %110

107:                                              ; preds = %101, %97, %92
  %108 = load ptr, ptr @bio_err, align 8, !tbaa !13
  %109 = call i32 (ptr, ptr, ...) @BIO_printf(ptr noundef %108, ptr noundef @.str.136)
  br label %112

110:                                              ; preds = %101
  br label %111

111:                                              ; preds = %110, %67, %64
  store i32 1, ptr %13, align 4, !tbaa !4
  br label %112

112:                                              ; preds = %111, %107, %89, %80, %61, %43, %34, %23
  %113 = load ptr, ptr %15, align 8, !tbaa !11
  call void @CRYPTO_free(ptr noundef %113, ptr noundef @.str.106, i32 noundef 565)
  %114 = load ptr, ptr %16, align 8, !tbaa !11
  call void @CRYPTO_free(ptr noundef %114, ptr noundef @.str.106, i32 noundef 566)
  %115 = load ptr, ptr %18, align 8, !tbaa !23
  call void @NCONF_free(ptr noundef %115)
  %116 = load i32, ptr %13, align 4, !tbaa !4
  call void @llvm.lifetime.end.p0(i64 8, ptr %18) #6
  call void @llvm.lifetime.end.p0(i64 8, ptr %17) #6
  call void @llvm.lifetime.end.p0(i64 8, ptr %16) #6
  call void @llvm.lifetime.end.p0(i64 8, ptr %15) #6
  call void @llvm.lifetime.end.p0(i64 8, ptr %14) #6
  call void @llvm.lifetime.end.p0(i64 4, ptr %13) #6
  ret i32 %116
}