; Function Attrs: nounwind uwtable
define internal fastcc range(i32 0, 2) i32 @verify_config(ptr noundef %0, ptr noundef %1, ptr noundef nonnull readonly captures(none) %2, i64 noundef %3, ptr noundef nonnull readonly captures(none) %4, i64 noundef %5) unnamed_addr #0 {
  %7 = alloca i64, align 8
  call void @llvm.lifetime.start.p0(i64 8, ptr nonnull %7) #6
  %8 = tail call ptr @app_load_config_internal(ptr noundef %0, i32 noundef 0) #6
  %9 = icmp eq ptr %8, null
  br i1 %9, label %56, label %10

10:                                               ; preds = %6
  %11 = tail call ptr @NCONF_get_string(ptr noundef nonnull %8, ptr noundef %1, ptr noundef nonnull @.str.126) #6
  %12 = icmp eq ptr %11, null
  br i1 %12, label %.tail.thread, label %sub_0

sub_0:                                            ; preds = %10
  %13 = load i8, ptr %11, align 1
  %.not54 = icmp eq i8 %13, 49
  br i1 %.not54, label %.tail, label %.tail.thread

.tail:                                            ; preds = %sub_0
  %14 = getelementptr inbounds nuw i8, ptr %11, i64 1
  %15 = load i8, ptr %14, align 1
  %16 = icmp eq i8 %15, 0
  br i1 %16, label %19, label %.tail.thread

.tail.thread:                                     ; preds = %sub_0, %.tail, %10
  %17 = load ptr, ptr @bio_err, align 8, !tbaa !10
  %18 = tail call i32 (ptr, ptr, ...) @BIO_printf(ptr noundef %17, ptr noundef nonnull @.str.128) #6
  br label %56

19:                                               ; preds = %.tail
  %20 = tail call ptr @NCONF_get_string(ptr noundef nonnull %8, ptr noundef %1, ptr noundef nonnull @.str.129) #6
  %21 = icmp eq ptr %20, null
  br i1 %21, label %22, label %25

22:                                               ; preds = %19
  %23 = load ptr, ptr @bio_err, align 8, !tbaa !10
  %24 = tail call i32 (ptr, ptr, ...) @BIO_printf(ptr noundef %23, ptr noundef nonnull @.str.130) #6
  br label %56

25:                                               ; preds = %19
  %26 = call ptr @OPENSSL_hexstr2buf(ptr noundef nonnull %20, ptr noundef nonnull %7) #6
  %27 = icmp ne ptr %26, null
  %28 = load i64, ptr %7, align 8
  %.not46 = icmp eq i64 %28, %3
  %or.cond = select i1 %27, i1 %.not46, i1 false
  br i1 %or.cond, label %29, label %30

29:                                               ; preds = %25
  %bcmp = call i32 @bcmp(ptr nonnull %2, ptr nonnull %26, i64 %3)
  %.not47 = icmp eq i32 %bcmp, 0
  br i1 %.not47, label %33, label %30

30:                                               ; preds = %29, %25
  %31 = load ptr, ptr @bio_err, align 8, !tbaa !10
  %32 = call i32 (ptr, ptr, ...) @BIO_printf(ptr noundef %31, ptr noundef nonnull @.str.131) #6
  br label %56

33:                                               ; preds = %29
  %.not48 = icmp eq i64 %5, 0
  br i1 %.not48, label %56, label %34

34:                                               ; preds = %33
  %35 = call ptr @NCONF_get_string(ptr noundef nonnull %8, ptr noundef %1, ptr noundef nonnull @.str.132) #6
  %36 = icmp eq ptr %35, null
  br i1 %36, label %39, label %37

37:                                               ; preds = %34
  %38 = call i32 @strcmp(ptr noundef nonnull dereferenceable(1) %35, ptr noundef nonnull dereferenceable(27) @.str.115) #7
  %.not49 = icmp eq i32 %38, 0
  br i1 %.not49, label %42, label %39

39:                                               ; preds = %37, %34
  %40 = load ptr, ptr @bio_err, align 8, !tbaa !10
  %41 = call i32 (ptr, ptr, ...) @BIO_printf(ptr noundef %40, ptr noundef nonnull @.str.133) #6
  br label %56

42:                                               ; preds = %37
  %43 = call ptr @NCONF_get_string(ptr noundef nonnull %8, ptr noundef %1, ptr noundef nonnull @.str.134) #6
  %44 = icmp eq ptr %43, null
  br i1 %44, label %45, label %48

45:                                               ; preds = %42
  %46 = load ptr, ptr @bio_err, align 8, !tbaa !10
  %47 = call i32 (ptr, ptr, ...) @BIO_printf(ptr noundef %46, ptr noundef nonnull @.str.135) #6
  br label %56

48:                                               ; preds = %42
  %49 = call ptr @OPENSSL_hexstr2buf(ptr noundef nonnull %43, ptr noundef nonnull %7) #6
  %50 = icmp ne ptr %49, null
  %51 = load i64, ptr %7, align 8
  %.not50 = icmp eq i64 %51, %5
  %or.cond53 = select i1 %50, i1 %.not50, i1 false
  br i1 %or.cond53, label %52, label %53

52:                                               ; preds = %48
  %bcmp51 = call i32 @bcmp(ptr nonnull %4, ptr nonnull %49, i64 %5)
  %.not52 = icmp eq i32 %bcmp51, 0
  br i1 %.not52, label %56, label %53

53:                                               ; preds = %52, %48
  %54 = load ptr, ptr @bio_err, align 8, !tbaa !10
  %55 = call i32 (ptr, ptr, ...) @BIO_printf(ptr noundef %54, ptr noundef nonnull @.str.136) #6
  br label %56

56:                                               ; preds = %33, %52, %6, %53, %45, %39, %30, %22, %.tail.thread
  %.035 = phi i32 [ 0, %6 ], [ 0, %.tail.thread ], [ 0, %22 ], [ 0, %30 ], [ 0, %39 ], [ 0, %45 ], [ 0, %53 ], [ 1, %52 ], [ 1, %33 ]
  %.034 = phi ptr [ null, %6 ], [ null, %.tail.thread ], [ null, %22 ], [ %26, %30 ], [ %26, %39 ], [ %26, %45 ], [ %26, %53 ], [ %26, %52 ], [ %26, %33 ]
  %.0 = phi ptr [ null, %6 ], [ null, %.tail.thread ], [ null, %22 ], [ null, %30 ], [ null, %39 ], [ null, %45 ], [ %49, %53 ], [ %49, %52 ], [ null, %33 ]
  call void @CRYPTO_free(ptr noundef %.034, ptr noundef nonnull @.str.106, i32 noundef 565) #6
  call void @CRYPTO_free(ptr noundef %.0, ptr noundef nonnull @.str.106, i32 noundef 566) #6
  call void @NCONF_free(ptr noundef %8) #6
  call void @llvm.lifetime.end.p0(i64 8, ptr nonnull %7) #6
  ret i32 %.035
}